; Function Attrs: nounwind uwtable
define void @JNU_ThrowIOExceptionWithLastError(ptr noundef %0, ptr noundef %1) local_unnamed_addr #0 {
  %3 = tail call ptr @getLastErrorString(ptr noundef %0) #10
  %.not.i = icmp eq ptr %3, null
  br i1 %.not.i, label %11, label %4

4:                                                ; preds = %2
  %5 = tail call ptr (ptr, ptr, ptr, ...) @JNU_NewObjectByName(ptr noundef %0, ptr noundef nonnull @.str.6, ptr noundef nonnull @.str.7, ptr noundef nonnull %3)
  %.not15.i = icmp eq ptr %5, null
  br i1 %.not15.i, label %11, label %6

6:                                                ; preds = %4
  %7 = load ptr, ptr %0, align 8
  %8 = getelementptr inbounds i8, ptr %7, i64 104
  %9 = load ptr, ptr %8, align 8
  %10 = tail call i32 %9(ptr noundef nonnull %0, ptr noundef nonnull %5) #10
  br label %11

11:                                               ; preds = %6, %4, %2
  %12 = load ptr, ptr %0, align 8
  %13 = getelementptr inbounds i8, ptr %12, i64 120
  %14 = load ptr, ptr %13, align 8
  %15 = tail call ptr %14(ptr noundef nonnull %0) #10
  %.not16.i = icmp eq ptr %15, null
  br i1 %.not16.i, label %16, label %JNU_ThrowByNameWithLastError.exit

16:                                               ; preds = %11
  %17 = load ptr, ptr %0, align 8
  %18 = getelementptr inbounds i8, ptr %17, i64 48
  %19 = load ptr, ptr %18, align 8
  %20 = tail call ptr %19(ptr noundef nonnull %0, ptr noundef nonnull @.str.6) #10
  %.not.i.i = icmp eq ptr %20, null
  br i1 %.not.i.i, label %JNU_ThrowByNameWithLastError.exit, label %21

21:                                               ; preds = %16
  %22 = load ptr, ptr %0, align 8
  %23 = getelementptr inbounds i8, ptr %22, i64 112
  %24 = load ptr, ptr %23, align 8
  %25 = tail call i32 %24(ptr noundef nonnull %0, ptr noundef nonnull %20, ptr noundef %1) #10
  br label %JNU_ThrowByNameWithLastError.exit

JNU_ThrowByNameWithLastError.exit:                ; preds = %11, %16, %21
  ret void
}